; Function Attrs: mustprogress nofree norecurse nosync nounwind willreturn memory(argmem: read) uwtable
define { ptr, i64 } @_ZNK5boost4urls6detail8url_impl3getEii(ptr nocapture noundef nonnull readonly align 8 dereferenceable(171) %0, i32 noundef %1, i32 noundef %2) local_unnamed_addr #4 align 2 {
  %4 = load ptr, ptr %0, align 8, !tbaa !31
  %5 = icmp eq i32 %1, -1
  br i1 %5, label %_ZNK5boost4urls6detail8url_impl6offsetEi.exit, label %6

6:                                                ; preds = %3
  %7 = getelementptr inbounds nuw i8, ptr %0, i64 8
  %8 = sext i32 %1 to i64
  %9 = getelementptr inbounds [8 x i64], ptr %7, i64 0, i64 %8
  %10 = load i64, ptr %9, align 8, !tbaa !13
  br label %_ZNK5boost4urls6detail8url_impl6offsetEi.exit

_ZNK5boost4urls6detail8url_impl6offsetEi.exit:    ; preds = %3, %6
  %11 = phi i64 [ %10, %6 ], [ 0, %3 ]
  %12 = icmp eq i32 %2, -1
  br i1 %12, label %_ZNK5boost4urls6detail8url_impl6offsetEi.exit3, label %13

13:                                               ; preds = %_ZNK5boost4urls6detail8url_impl6offsetEi.exit
  %14 = getelementptr inbounds nuw i8, ptr %0, i64 8
  %15 = sext i32 %2 to i64
  %16 = getelementptr inbounds [8 x i64], ptr %14, i64 0, i64 %15
  %17 = load i64, ptr %16, align 8, !tbaa !13
  br label %_ZNK5boost4urls6detail8url_impl6offsetEi.exit3

_ZNK5boost4urls6detail8url_impl6offsetEi.exit3:   ; preds = %_ZNK5boost4urls6detail8url_impl6offsetEi.exit, %13
  %18 = phi i64 [ %17, %13 ], [ 0, %_ZNK5boost4urls6detail8url_impl6offsetEi.exit ]
  br i1 %5, label %_ZNK5boost4urls6detail8url_impl6offsetEi.exit4, label %19

19:                                               ; preds = %_ZNK5boost4urls6detail8url_impl6offsetEi.exit3
  %20 = getelementptr inbounds nuw i8, ptr %0, i64 8
  %21 = sext i32 %1 to i64
  %22 = getelementptr inbounds [8 x i64], ptr %20, i64 0, i64 %21
  %23 = load i64, ptr %22, align 8, !tbaa !13
  br label %_ZNK5boost4urls6detail8url_impl6offsetEi.exit4

_ZNK5boost4urls6detail8url_impl6offsetEi.exit4:   ; preds = %_ZNK5boost4urls6detail8url_impl6offsetEi.exit3, %19
  %24 = phi i64 [ %23, %19 ], [ 0, %_ZNK5boost4urls6detail8url_impl6offsetEi.exit3 ]
  %25 = getelementptr inbounds nuw i8, ptr %4, i64 %11
  %26 = sub i64 %18, %24
  %.fca.0.insert = insertvalue { ptr, i64 } poison, ptr %25, 0
  %.fca.1.insert = insertvalue { ptr, i64 } %.fca.0.insert, i64 %26, 1
  ret { ptr, i64 } %.fca.1.insert
}